; Function Attrs: mustprogress uwtable
define void @rocksdb_transaction_rebuild_from_writebatch(ptr noundef readonly captures(none) %0, ptr noundef %1, ptr noundef captures(none) %2) local_unnamed_addr #0 personality ptr @__gxx_personality_v0 {
  %4 = alloca %"class.rocksdb::Status", align 8
  call void @llvm.lifetime.start.p0(i64 16, ptr nonnull %4) #43
  %5 = load ptr, ptr %0, align 8, !tbaa !1216
  %6 = load ptr, ptr %5, align 8, !tbaa !23
  %7 = getelementptr inbounds nuw i8, ptr %6, i64 624
  %8 = load ptr, ptr %7, align 8
  call void %8(ptr dead_on_unwind nonnull writable sret(%"class.rocksdb::Status") align 8 %4, ptr noundef nonnull align 8 dereferenceable(64) %5, ptr noundef %1)
  %9 = invoke fastcc noundef zeroext i1 @_ZL9SaveErrorPPcRKN7rocksdb6StatusE(ptr noundef %2, ptr noundef nonnull align 8 dereferenceable(16) %4)
          to label %10 unwind label %13

10:                                               ; preds = %3
  %11 = getelementptr inbounds nuw i8, ptr %4, i64 8
  %12 = load ptr, ptr %11, align 8, !tbaa !25
  %.not.i.i = icmp eq ptr %12, null
  br i1 %.not.i.i, label %_ZN7rocksdb6StatusD2Ev.exit, label %_ZNKSt14default_deleteIA_KcEclIS0_EENSt9enable_ifIXsr14is_convertibleIPA_T_PS1_EE5valueEvE4typeEPS5_.exit.i.i

_ZNKSt14default_deleteIA_KcEclIS0_EENSt9enable_ifIXsr14is_convertibleIPA_T_PS1_EE5valueEvE4typeEPS5_.exit.i.i: ; preds = %10
  call void @_ZdaPv(ptr noundef nonnull %12) #45
  br label %_ZN7rocksdb6StatusD2Ev.exit

_ZN7rocksdb6StatusD2Ev.exit:                      ; preds = %10, %_ZNKSt14default_deleteIA_KcEclIS0_EENSt9enable_ifIXsr14is_convertibleIPA_T_PS1_EE5valueEvE4typeEPS5_.exit.i.i
  call void @llvm.lifetime.end.p0(i64 16, ptr nonnull %4) #43
  ret void

13:                                               ; preds = %3
  %14 = landingpad { ptr, i32 }
          cleanup
  %15 = getelementptr inbounds nuw i8, ptr %4, i64 8
  %16 = load ptr, ptr %15, align 8, !tbaa !25
  %.not.i.i4 = icmp eq ptr %16, null
  br i1 %.not.i.i4, label %_ZN7rocksdb6StatusD2Ev.exit6, label %_ZNKSt14default_deleteIA_KcEclIS0_EENSt9enable_ifIXsr14is_convertibleIPA_T_PS1_EE5valueEvE4typeEPS5_.exit.i.i5

_ZNKSt14default_deleteIA_KcEclIS0_EENSt9enable_ifIXsr14is_convertibleIPA_T_PS1_EE5valueEvE4typeEPS5_.exit.i.i5: ; preds = %13
  call void @_ZdaPv(ptr noundef nonnull %16) #45
  br label %_ZN7rocksdb6StatusD2Ev.exit6

_ZN7rocksdb6StatusD2Ev.exit6:                     ; preds = %13, %_ZNKSt14default_deleteIA_KcEclIS0_EENSt9enable_ifIXsr14is_convertibleIPA_T_PS1_EE5valueEvE4typeEPS5_.exit.i.i5
  call void @llvm.lifetime.end.p0(i64 16, ptr nonnull %4) #43
  resume { ptr, i32 } %14
}